; ModuleID = 'bench/php/original/entityreference.ll'
source_filename = "bench/php/original/entityreference.ll"
target datalayout = "e-m:e-p270:32:32-p271:32:32-p272:64:64-i64:64-i128:128-f80:128-n8:16:32:64-S128"
target triple = "x86_64-pc-linux-gnu"

%struct._zend_executor_globals = type { %struct._zval_struct, %struct._zval_struct, [32 x ptr], ptr, ptr, %struct._zend_array, %struct._zend_array, ptr, i32, i32, ptr, ptr, ptr, ptr, ptr, ptr, i64, ptr, ptr, i32, i32, i64, i32, i32, i32, i8, i8, %struct.zend_atomic_bool_s, %struct.zend_atomic_bool_s, ptr, i64, ptr, ptr, %struct._zend_array, %struct._zend_array, i32, i8, %struct._zval_struct, %struct._zval_struct, %struct._zend_stack, %struct._zend_stack, %struct._zend_stack, ptr, i32, i32, i64, ptr, ptr, ptr, %struct._zend_objects_store, ptr, ptr, ptr, [3 x %struct._zend_op], ptr, i8, i8, i64, i32, i32, ptr, [16 x %struct._HashTableIterator], ptr, %union._zend_function, %struct._zend_op, %struct._zend_array, i64, %struct.zend_get_gc_buffer, ptr, ptr, ptr, i64, i8, i32, ptr, ptr, i64, %struct._zend_call_stack, i64, i64, [6 x ptr] }
%struct.zend_atomic_bool_s = type { i8 }
%struct._zval_struct = type { %union._zend_value, %union.anon, %union.anon.2 }
%union._zend_value = type { i64 }
%union.anon = type { i32 }
%union.anon.2 = type { i32 }
%struct._zend_stack = type { i32, i32, i32, ptr }
%struct._zend_objects_store = type { ptr, i32, i32, i32 }
%struct._HashTableIterator = type { ptr, i32, i32 }
%union._zend_function = type { %struct._zend_op_array }
%struct._zend_op_array = type { i8, [3 x i8], i32, ptr, ptr, ptr, i32, i32, ptr, ptr, ptr, ptr, i32, i32, i32, i32, ptr, ptr, ptr, ptr, ptr, i32, i32, ptr, ptr, ptr, i32, i32, i32, i32, ptr, ptr, [6 x ptr] }
%struct._zend_op = type { ptr, %union._znode_op, %union._znode_op, %union._znode_op, i32, i32, i8, i8, i8, i8 }
%union._znode_op = type { i32 }
%struct._zend_array = type { %struct._zend_refcounted_h, %union.anon.4, i32, %union.anon.6, i32, i32, i32, i32, i64, ptr }
%struct._zend_refcounted_h = type { i32, %union.anon.3 }
%union.anon.3 = type { i32 }
%union.anon.4 = type { i32 }
%union.anon.6 = type { ptr }
%struct.zend_get_gc_buffer = type { ptr, ptr, ptr }
%struct._zend_call_stack = type { ptr, i64 }

@.str = private unnamed_addr constant [2 x i8] c"s\00", align 1
@executor_globals = external local_unnamed_addr global %struct._zend_executor_globals, align 8

; Function Attrs: nounwind uwtable
define hidden void @zim_DOMEntityReference___construct(ptr nocapture noundef readonly %0, ptr nocapture noundef readnone %1) local_unnamed_addr #0 {
  %3 = alloca ptr, align 8
  %4 = alloca i64, align 8
  %5 = getelementptr inbounds i8, ptr %0, i64 32
  %6 = getelementptr inbounds i8, ptr %0, i64 44
  %7 = load i32, ptr %6, align 4
  %8 = call i32 (i32, ptr, ...) @zend_parse_parameters(i32 noundef %7, ptr noundef nonnull @.str, ptr noundef nonnull %3, ptr noundef nonnull %4) #3
  %9 = icmp eq i32 %8, -1
  br i1 %9, label %10, label %13

10:                                               ; preds = %2
  %11 = load ptr, ptr getelementptr inbounds (%struct._zend_executor_globals, ptr @executor_globals, i64 0, i32 50), align 8
  %12 = icmp ne ptr %11, null
  call void @llvm.assume(i1 %12)
  br label %32

13:                                               ; preds = %2
  %14 = load ptr, ptr %3, align 8
  %15 = call i32 @xmlValidateName(ptr noundef %14, i32 noundef 0) #3
  %.not = icmp eq i32 %15, 0
  br i1 %.not, label %19, label %16

16:                                               ; preds = %13
  call void @php_dom_throw_error(i32 noundef 5, i32 noundef 1) #3
  %17 = load ptr, ptr getelementptr inbounds (%struct._zend_executor_globals, ptr @executor_globals, i64 0, i32 50), align 8
  %18 = icmp ne ptr %17, null
  call void @llvm.assume(i1 %18)
  br label %32

19:                                               ; preds = %13
  %20 = load ptr, ptr %3, align 8
  %21 = call ptr @xmlNewReference(ptr noundef null, ptr noundef %20) #3
  %.not9 = icmp eq ptr %21, null
  br i1 %.not9, label %22, label %25

22:                                               ; preds = %19
  call void @php_dom_throw_error(i32 noundef 11, i32 noundef 1) #3
  %23 = load ptr, ptr getelementptr inbounds (%struct._zend_executor_globals, ptr @executor_globals, i64 0, i32 50), align 8
  %24 = icmp ne ptr %23, null
  call void @llvm.assume(i1 %24)
  br label %32

25:                                               ; preds = %19
  %26 = load ptr, ptr %5, align 8
  %27 = getelementptr inbounds i8, ptr %26, i64 -24
  %28 = call ptr @dom_object_get_node(ptr noundef nonnull %27) #3
  %.not10 = icmp eq ptr %28, null
  br i1 %.not10, label %30, label %29

29:                                               ; preds = %25
  call void @php_libxml_node_decrement_resource(ptr noundef nonnull %27) #3
  br label %30

30:                                               ; preds = %29, %25
  %31 = call i32 @php_libxml_increment_node_ptr(ptr noundef nonnull %27, ptr noundef nonnull %21, ptr noundef nonnull %27) #3
  br label %32

32:                                               ; preds = %30, %22, %16, %10
  ret void
}

declare i32 @zend_parse_parameters(i32 noundef, ptr noundef, ...) local_unnamed_addr #1

; Function Attrs: mustprogress nocallback nofree nosync nounwind willreturn memory(inaccessiblemem: write)
declare void @llvm.assume(i1 noundef) #2

declare i32 @xmlValidateName(ptr noundef, i32 noundef) local_unnamed_addr #1

declare void @php_dom_throw_error(i32 noundef, i32 noundef) local_unnamed_addr #1

declare ptr @xmlNewReference(ptr noundef, ptr noundef) local_unnamed_addr #1

declare ptr @dom_object_get_node(ptr noundef) local_unnamed_addr #1

declare void @php_libxml_node_decrement_resource(ptr noundef) local_unnamed_addr #1

declare i32 @php_libxml_increment_node_ptr(ptr noundef, ptr noundef, ptr noundef) local_unnamed_addr #1


!llvm.module.flags = !{!0, !1, !2, !3}

!0 = !{i32 1, !"wchar_size", i32 4}
!1 = !{i32 8, !"PIC Level", i32 2}
!2 = !{i32 7, !"uwtable", i32 2}
!3 = !{i32 7, !"frame-pointer", i32 2}
